target datalayout = "e-m:e-p270:32:32-p271:32:32-p272:64:64-i64:64-f80:128-n8:16:32:64-S128"
target triple = "x86_64-pc-linux-gnu"

%struct.student = type { i32, i32 }

@.str = private unnamed_addr constant [3 x i8] c"%d\00", align 1
@.str.1 = private unnamed_addr constant [7 x i8] c"%d %d\0A\00", align 1

; Function Attrs: noinline nounwind uwtable
define dso_local i32 @main() #0 {
  %1 = alloca i32, align 4
  %2 = alloca i32, align 4
  %3 = alloca i32, align 4
  %4 = alloca i32, align 4
  %5 = alloca i32, align 4
  %6 = alloca i32, align 4
  %7 = alloca i32, align 4
  %8 = alloca i32, align 4
  %9 = alloca i32, align 4
  %10 = alloca i32, align 4
  %11 = alloca [3 x i32], align 4
  %12 = alloca %struct.student*, align 8
  store i32 0, i32* %1, align 4
  %13 = bitcast [3 x i32]* %11 to i8*
  call void @llvm.memset.p0i8.i64(i8* align 4 %13, i8 0, i64 12, i1 false)
  %14 = call i32 (i8*, ...) @__isoc99_scanf(i8* getelementptr inbounds ([3 x i8], [3 x i8]* @.str, i64 0, i64 0), i32* %2)
  %15 = load i32, i32* %2, align 4
  %16 = sext i32 %15 to i64
  %17 = mul i64 8, %16
  %18 = call noalias i8* @malloc(i64 %17) #4
  %19 = bitcast i8* %18 to %struct.student*
  store %struct.student* %19, %struct.student** %12, align 8
  store i32 0, i32* %3, align 4
  br label %20

20:                                               ; preds = %53, %0
  %21 = load i32, i32* %3, align 4
  %22 = load i32, i32* %2, align 4
  %23 = icmp slt i32 %21, %22
  br i1 %23, label %24, label %56

24:                                               ; preds = %20
  store i32 0, i32* %9, align 4
  %25 = load %struct.student*, %struct.student** %12, align 8
  %26 = load i32, i32* %3, align 4
  %27 = sext i32 %26 to i64
  %28 = getelementptr inbounds %struct.student, %struct.student* %25, i64 %27
  %29 = getelementptr inbounds %struct.student, %struct.student* %28, i32 0, i32 0
  %30 = call i32 (i8*, ...) @__isoc99_scanf(i8* getelementptr inbounds ([3 x i8], [3 x i8]* @.str, i64 0, i64 0), i32* %29)
  %31 = load %struct.student*, %struct.student** %12, align 8
  %32 = load i32, i32* %3, align 4
  %33 = sext i32 %32 to i64
  %34 = getelementptr inbounds %struct.student, %struct.student* %31, i64 %33
  %35 = getelementptr inbounds %struct.student, %struct.student* %34, i32 0, i32 1
  store i32 0, i32* %35, align 4
  store i32 0, i32* %4, align 4
  br label %36

36:                                               ; preds = %49, %24
  %37 = load i32, i32* %4, align 4
  %38 = icmp slt i32 %37, 2
  br i1 %38, label %39, label %52

39:                                               ; preds = %36
  %40 = call i32 (i8*, ...) @__isoc99_scanf(i8* getelementptr inbounds ([3 x i8], [3 x i8]* @.str, i64 0, i64 0), i32* %9)
  %41 = load i32, i32* %9, align 4
  %42 = load %struct.student*, %struct.student** %12, align 8
  %43 = load i32, i32* %3, align 4
  %44 = sext i32 %43 to i64
  %45 = getelementptr inbounds %struct.student, %struct.student* %42, i64 %44
  %46 = getelementptr inbounds %struct.student, %struct.student* %45, i32 0, i32 1
  %47 = load i32, i32* %46, align 4
  %48 = add nsw i32 %47, %41
  store i32 %48, i32* %46, align 4
  br label %49

49:                                               ; preds = %39
  %50 = load i32, i32* %4, align 4
  %51 = add nsw i32 %50, 1
  store i32 %51, i32* %4, align 4
  br label %36

52:                                               ; preds = %36
  br label %53

53:                                               ; preds = %52
  %54 = load i32, i32* %3, align 4
  %55 = add nsw i32 %54, 1
  store i32 %55, i32* %3, align 4
  br label %20

56:                                               ; preds = %20
  store i32 0, i32* %7, align 4
  br label %57

57:                                               ; preds = %149, %56
  %58 = load i32, i32* %7, align 4
  %59 = icmp slt i32 %58, 3
  br i1 %59, label %60, label %152

60:                                               ; preds = %57
  store i32 0, i32* %10, align 4
  %61 = load i32, i32* %7, align 4
  store i32 %61, i32* %6, align 4
  br label %62

62:                                               ; preds = %87, %60
  %63 = load i32, i32* %6, align 4
  %64 = load i32, i32* %2, align 4
  %65 = icmp slt i32 %63, %64
  br i1 %65, label %66, label %90

66:                                               ; preds = %62
  %67 = load %struct.student*, %struct.student** %12, align 8
  %68 = load i32, i32* %6, align 4
  %69 = sext i32 %68 to i64
  %70 = getelementptr inbounds %struct.student, %struct.student* %67, i64 %69
  %71 = getelementptr inbounds %struct.student, %struct.student* %70, i32 0, i32 1
  %72 = load i32, i32* %71, align 4
  %73 = load i32, i32* %10, align 4
  %74 = icmp sgt i32 %72, %73
  br i1 %74, label %75, label %86

75:                                               ; preds = %66
  %76 = load %struct.student*, %struct.student** %12, align 8
  %77 = load i32, i32* %6, align 4
  %78 = sext i32 %77 to i64
  %79 = getelementptr inbounds %struct.student, %struct.student* %76, i64 %78
  %80 = getelementptr inbounds %struct.student, %struct.student* %79, i32 0, i32 1
  %81 = load i32, i32* %80, align 4
  store i32 %81, i32* %10, align 4
  %82 = load i32, i32* %6, align 4
  %83 = load i32, i32* %7, align 4
  %84 = sext i32 %83 to i64
  %85 = getelementptr inbounds [3 x i32], [3 x i32]* %11, i64 0, i64 %84
  store i32 %82, i32* %85, align 4
  br label %86

86:                                               ; preds = %75, %66
  br label %87

87:                                               ; preds = %86
  %88 = load i32, i32* %6, align 4
  %89 = add nsw i32 %88, 1
  store i32 %89, i32* %6, align 4
  br label %62

90:                                               ; preds = %62
  %91 = load %struct.student*, %struct.student** %12, align 8
  %92 = load i32, i32* %7, align 4
  %93 = sext i32 %92 to i64
  %94 = getelementptr inbounds %struct.student, %struct.student* %91, i64 %93
  %95 = getelementptr inbounds %struct.student, %struct.student* %94, i32 0, i32 0
  %96 = load i32, i32* %95, align 4
  store i32 %96, i32* %5, align 4
  %97 = load %struct.student*, %struct.student** %12, align 8
  %98 = load i32, i32* %7, align 4
  %99 = sext i32 %98 to i64
  %100 = getelementptr inbounds [3 x i32], [3 x i32]* %11, i64 0, i64 %99
  %101 = load i32, i32* %100, align 4
  %102 = sext i32 %101 to i64
  %103 = getelementptr inbounds %struct.student, %struct.student* %97, i64 %102
  %104 = getelementptr inbounds %struct.student, %struct.student* %103, i32 0, i32 0
  %105 = load i32, i32* %104, align 4
  %106 = load %struct.student*, %struct.student** %12, align 8
  %107 = load i32, i32* %7, align 4
  %108 = sext i32 %107 to i64
  %109 = getelementptr inbounds %struct.student, %struct.student* %106, i64 %108
  %110 = getelementptr inbounds %struct.student, %struct.student* %109, i32 0, i32 0
  store i32 %105, i32* %110, align 4
  %111 = load i32, i32* %5, align 4
  %112 = load %struct.student*, %struct.student** %12, align 8
  %113 = load i32, i32* %7, align 4
  %114 = sext i32 %113 to i64
  %115 = getelementptr inbounds [3 x i32], [3 x i32]* %11, i64 0, i64 %114
  %116 = load i32, i32* %115, align 4
  %117 = sext i32 %116 to i64
  %118 = getelementptr inbounds %struct.student, %struct.student* %112, i64 %117
  %119 = getelementptr inbounds %struct.student, %struct.student* %118, i32 0, i32 0
  store i32 %111, i32* %119, align 4
  %120 = load %struct.student*, %struct.student** %12, align 8
  %121 = load i32, i32* %7, align 4
  %122 = sext i32 %121 to i64
  %123 = getelementptr inbounds %struct.student, %struct.student* %120, i64 %122
  %124 = getelementptr inbounds %struct.student, %struct.student* %123, i32 0, i32 1
  %125 = load i32, i32* %124, align 4
  store i32 %125, i32* %5, align 4
  %126 = load %struct.student*, %struct.student** %12, align 8
  %127 = load i32, i32* %7, align 4
  %128 = sext i32 %127 to i64
  %129 = getelementptr inbounds [3 x i32], [3 x i32]* %11, i64 0, i64 %128
  %130 = load i32, i32* %129, align 4
  %131 = sext i32 %130 to i64
  %132 = getelementptr inbounds %struct.student, %struct.student* %126, i64 %131
  %133 = getelementptr inbounds %struct.student, %struct.student* %132, i32 0, i32 1
  %134 = load i32, i32* %133, align 4
  %135 = load %struct.student*, %struct.student** %12, align 8
  %136 = load i32, i32* %7, align 4
  %137 = sext i32 %136 to i64
  %138 = getelementptr inbounds %struct.student, %struct.student* %135, i64 %137
  %139 = getelementptr inbounds %struct.student, %struct.student* %138, i32 0, i32 1
  store i32 %134, i32* %139, align 4
  %140 = load i32, i32* %5, align 4
  %141 = load %struct.student*, %struct.student** %12, align 8
  %142 = load i32, i32* %7, align 4
  %143 = sext i32 %142 to i64
  %144 = getelementptr inbounds [3 x i32], [3 x i32]* %11, i64 0, i64 %143
  %145 = load i32, i32* %144, align 4
  %146 = sext i32 %145 to i64
  %147 = getelementptr inbounds %struct.student, %struct.student* %141, i64 %146
  %148 = getelementptr inbounds %struct.student, %struct.student* %147, i32 0, i32 1
  store i32 %140, i32* %148, align 4
  br label %149

149:                                              ; preds = %90
  %150 = load i32, i32* %7, align 4
  %151 = add nsw i32 %150, 1
  store i32 %151, i32* %7, align 4
  br label %57

152:                                              ; preds = %57
  store i32 0, i32* %6, align 4
  br label %153

153:                                              ; preds = %170, %152
  %154 = load i32, i32* %6, align 4
  %155 = icmp slt i32 %154, 3
  br i1 %155, label %156, label %173

156:                                              ; preds = %153
  %157 = load %struct.student*, %struct.student** %12, align 8
  %158 = load i32, i32* %6, align 4
  %159 = sext i32 %158 to i64
  %160 = getelementptr inbounds %struct.student, %struct.student* %157, i64 %159
  %161 = getelementptr inbounds %struct.student, %struct.student* %160, i32 0, i32 0
  %162 = load i32, i32* %161, align 4
  %163 = load %struct.student*, %struct.student** %12, align 8
  %164 = load i32, i32* %6, align 4
  %165 = sext i32 %164 to i64
  %166 = getelementptr inbounds %struct.student, %struct.student* %163, i64 %165
  %167 = getelementptr inbounds %struct.student, %struct.student* %166, i32 0, i32 1
  %168 = load i32, i32* %167, align 4
  %169 = call i32 (i8*, ...) @printf(i8* getelementptr inbounds ([7 x i8], [7 x i8]* @.str.1, i64 0, i64 0), i32 %162, i32 %168)
  br label %170

170:                                              ; preds = %156
  %171 = load i32, i32* %6, align 4
  %172 = add nsw i32 %171, 1
  store i32 %172, i32* %6, align 4
  br label %153

173:                                              ; preds = %153
  ret i32 0
}